; Function Attrs: nounwind uwtable
define dso_local void @config_zval_dtor(ptr noundef readonly captures(none) %0) #0 {
  %2 = getelementptr inbounds nuw i8, ptr %0, i64 8
  %3 = load i8, ptr %2, align 8, !tbaa !47
  switch i8 %3, label %zend_string_release_ex.exit [
    i8 7, label %4
    i8 6, label %7
  ]

4:                                                ; preds = %1
  %5 = load ptr, ptr %0, align 8, !tbaa !47
  tail call void @zend_hash_destroy(ptr noundef %5) #16
  %6 = load ptr, ptr %0, align 8, !tbaa !47
  br label %zend_string_release_ex.exit.sink.split

7:                                                ; preds = %1
  %8 = load ptr, ptr %0, align 8, !tbaa !47
  %9 = getelementptr inbounds nuw i8, ptr %8, i64 4
  %10 = load i32, ptr %9, align 4, !tbaa !47
  %11 = and i32 %10, 64
  %.not.i = icmp eq i32 %11, 0
  br i1 %.not.i, label %12, label %zend_string_release_ex.exit

12:                                               ; preds = %7
  %13 = load i32, ptr %8, align 4, !tbaa !62
  %14 = icmp ne i32 %13, 0
  tail call void @llvm.assume(i1 %14)
  %15 = add i32 %13, -1
  store i32 %15, ptr %8, align 4, !tbaa !62
  %16 = icmp eq i32 %15, 0
  br i1 %16, label %zend_string_release_ex.exit.sink.split, label %zend_string_release_ex.exit

zend_string_release_ex.exit.sink.split:           ; preds = %12, %4
  %.sink = phi ptr [ %6, %4 ], [ %8, %12 ]
  tail call void @free(ptr noundef %.sink) #16
  br label %zend_string_release_ex.exit

zend_string_release_ex.exit:                      ; preds = %zend_string_release_ex.exit.sink.split, %1, %12, %7
  ret void
}